; Function Attrs: nounwind uwtable
define hidden void @zim_DateTimeImmutable_setTimezone(ptr nocapture noundef readonly %0, ptr nocapture noundef writeonly %1) #0 {
  %3 = alloca ptr, align 8
  %4 = getelementptr inbounds i8, ptr %0, i64 44
  %5 = load i32, ptr %4, align 4
  %6 = load ptr, ptr @date_ce_timezone, align 8
  %7 = call i32 (i32, ptr, ...) @zend_parse_parameters(i32 noundef %5, ptr noundef nonnull @.str.46, ptr noundef nonnull %3, ptr noundef %6) #25
  %8 = icmp eq i32 %7, -1
  br i1 %8, label %9, label %12

9:                                                ; preds = %2
  %10 = load ptr, ptr getelementptr inbounds (%struct._zend_executor_globals, ptr @executor_globals, i64 0, i32 50), align 8
  %11 = icmp ne ptr %10, null
  call void @llvm.assume(i1 %11)
  br label %17

12:                                               ; preds = %2
  %13 = getelementptr inbounds i8, ptr %0, i64 32
  %.val7 = load ptr, ptr %13, align 8
  %14 = call ptr @date_object_clone_date(ptr noundef %.val7)
  %15 = load ptr, ptr %3, align 8
  call fastcc void @php_date_timezone_set(ptr nonnull %14, ptr noundef %15)
  store ptr %14, ptr %1, align 8
  %16 = getelementptr inbounds i8, ptr %1, i64 8
  store i32 776, ptr %16, align 8
  br label %17

17:                                               ; preds = %12, %9
  ret void
}